target datalayout = "e-m:e-p270:32:32-p271:32:32-p272:64:64-i64:64-i128:128-f80:128-n8:16:32:64-S128"
target triple = "x86_64-pc-linux-gnu"

@_ZZN4llvm4Type17getWasm_FuncrefTyERNS_11LLVMContextEE2Ty = internal global ptr null, align 8
@_ZGVZN4llvm4Type17getWasm_FuncrefTyERNS_11LLVMContextEE2Ty = internal global i64 0, align 8

; Function Attrs: mustprogress nounwind uwtable
define dso_local noundef ptr @_ZN4llvm4Type17getWasm_FuncrefTyERNS_11LLVMContextE(ptr noundef nonnull align 8 dereferenceable(8) %0) #0 align 2 {
  %2 = alloca ptr, align 8
  store ptr %0, ptr %2, align 8
  %3 = load atomic i8, ptr @_ZGVZN4llvm4Type17getWasm_FuncrefTyERNS_11LLVMContextEE2Ty acquire, align 8
  %4 = icmp eq i8 %3, 0
  br i1 %4, label %5, label %11, !prof !6

5:                                                ; preds = %1
  %6 = call i32 @__cxa_guard_acquire(ptr @_ZGVZN4llvm4Type17getWasm_FuncrefTyERNS_11LLVMContextEE2Ty) #4
  %7 = icmp ne i32 %6, 0
  br i1 %7, label %8, label %11

8:                                                ; preds = %5
  %9 = load ptr, ptr %2, align 8
  %10 = call noundef ptr @_ZN4llvm11PointerType3getERNS_11LLVMContextEj(ptr noundef nonnull align 8 dereferenceable(8) %9, i32 noundef 20)
  store ptr %10, ptr @_ZZN4llvm4Type17getWasm_FuncrefTyERNS_11LLVMContextEE2Ty, align 8
  call void @__cxa_guard_release(ptr @_ZGVZN4llvm4Type17getWasm_FuncrefTyERNS_11LLVMContextEE2Ty) #4
  br label %11

11:                                               ; preds = %8, %5, %1
  %12 = load ptr, ptr @_ZZN4llvm4Type17getWasm_FuncrefTyERNS_11LLVMContextEE2Ty, align 8
  ret ptr %12
}