; Function Attrs: mustprogress nounwind uwtable
define dso_local noundef ptr @_ZN4llvm4Type17getWasm_FuncrefTyERNS_11LLVMContextE(ptr noundef nonnull align 8 dereferenceable(8) %0) local_unnamed_addr #1 align 2 {
  %2 = load atomic i8, ptr @_ZGVZN4llvm4Type17getWasm_FuncrefTyERNS_11LLVMContextEE2Ty acquire, align 8
  %3 = icmp eq i8 %2, 0
  br i1 %3, label %4, label %8, !prof !17

4:                                                ; preds = %1
  %5 = tail call i32 @__cxa_guard_acquire(ptr nonnull @_ZGVZN4llvm4Type17getWasm_FuncrefTyERNS_11LLVMContextEE2Ty) #21
  %.not = icmp eq i32 %5, 0
  br i1 %.not, label %8, label %6

6:                                                ; preds = %4
  %7 = tail call noundef ptr @_ZN4llvm11PointerType3getERNS_11LLVMContextEj(ptr noundef nonnull align 8 dereferenceable(8) %0, i32 noundef 20)
  store ptr %7, ptr @_ZZN4llvm4Type17getWasm_FuncrefTyERNS_11LLVMContextEE2Ty, align 8
  tail call void @__cxa_guard_release(ptr nonnull @_ZGVZN4llvm4Type17getWasm_FuncrefTyERNS_11LLVMContextEE2Ty) #21
  br label %8

8:                                                ; preds = %6, %4, %1
  %9 = load ptr, ptr @_ZZN4llvm4Type17getWasm_FuncrefTyERNS_11LLVMContextEE2Ty, align 8
  ret ptr %9
}